target datalayout = "e-m:e-p270:32:32-p271:32:32-p272:64:64-i64:64-i128:128-f80:128-n8:16:32:64-S128"
target triple = "x86_64-pc-linux-gnu"

%"class.std::__1::__time_put" = type { ptr }

; Function Attrs: inlinehint mustprogress nounwind uwtable
define linkonce_odr hidden noundef i64 @_ZNSt3__18__locale10__strftimeB8ne210000EPcmPKcPK2tmP15__locale_struct(ptr noundef %0, i64 noundef %1, ptr noundef %2, ptr noundef %3, ptr noundef %4) #4 comdat {
  %6 = alloca ptr, align 8
  %7 = alloca i64, align 8
  %8 = alloca ptr, align 8
  %9 = alloca ptr, align 8
  %10 = alloca ptr, align 8
  store ptr %0, ptr %6, align 8, !tbaa !9
  store i64 %1, ptr %7, align 8, !tbaa !16
  store ptr %2, ptr %8, align 8, !tbaa !9
  store ptr %3, ptr %9, align 8, !tbaa !180
  store ptr %4, ptr %10, align 8, !tbaa !102
  %11 = load ptr, ptr %6, align 8, !tbaa !9
  %12 = load i64, ptr %7, align 8, !tbaa !16
  %13 = load ptr, ptr %8, align 8, !tbaa !9
  %14 = load ptr, ptr %9, align 8, !tbaa !180
  %15 = load ptr, ptr %10, align 8, !tbaa !102
  %16 = call i64 @strftime_l(ptr noundef %11, i64 noundef %12, ptr noundef %13, ptr noundef %14, ptr noundef %15) #13
  ret i64 %16
}

; Function Attrs: inlinehint mustprogress nounwind uwtable
define internal noundef i64 @_ZNSt3__112_GLOBAL__N_17countofIcEEmPKT_S4_(ptr noundef %0, ptr noundef %1) #4 {
  %3 = alloca ptr, align 8
  %4 = alloca ptr, align 8
  store ptr %0, ptr %3, align 8, !tbaa !9
  store ptr %1, ptr %4, align 8, !tbaa !9
  %5 = load ptr, ptr %4, align 8, !tbaa !9
  %6 = load ptr, ptr %3, align 8, !tbaa !9
  %7 = ptrtoint ptr %5 to i64
  %8 = ptrtoint ptr %6 to i64
  %9 = sub i64 %7, %8
  ret i64 %9
}

; Function Attrs: inlinehint mustprogress nounwind uwtable
define linkonce_odr hidden void @_ZNSt3__14swapB8ne210000IcEENS_9enable_ifIXaasr21is_move_constructibleIT_EE5valuesr18is_move_assignableIS2_EE5valueEvE4typeERS2_S5_(ptr noundef nonnull align 1 dereferenceable(1) %0, ptr noundef nonnull align 1 dereferenceable(1) %1) #4 comdat {
  %3 = alloca ptr, align 8
  %4 = alloca ptr, align 8
  %5 = alloca i8, align 1
  store ptr %0, ptr %3, align 8, !tbaa !9
  store ptr %1, ptr %4, align 8, !tbaa !9
  call void @llvm.lifetime.start.p0(i64 1, ptr %5) #13
  %6 = load ptr, ptr %3, align 8, !tbaa !9
  %7 = load i8, ptr %6, align 1, !tbaa !11
  store i8 %7, ptr %5, align 1, !tbaa !11
  %8 = load ptr, ptr %4, align 8, !tbaa !9
  %9 = load i8, ptr %8, align 1, !tbaa !11
  %10 = load ptr, ptr %3, align 8, !tbaa !9
  store i8 %9, ptr %10, align 1, !tbaa !11
  %11 = load i8, ptr %5, align 1, !tbaa !11
  %12 = load ptr, ptr %4, align 8, !tbaa !9
  store i8 %11, ptr %12, align 1, !tbaa !11
  call void @llvm.lifetime.end.p0(i64 1, ptr %5) #13
  ret void
}

; Function Attrs: mustprogress uwtable
define dso_local void @_ZNKSt3__110__time_put8__do_putEPcRS1_PK2tmcc(ptr noundef nonnull align 8 dereferenceable(8) %0, ptr noundef %1, ptr noundef nonnull align 8 dereferenceable(8) %2, ptr noundef %3, i8 noundef signext %4, i8 noundef signext %5) #2 align 2 {
  %7 = alloca ptr, align 8
  %8 = alloca ptr, align 8
  %9 = alloca ptr, align 8
  %10 = alloca ptr, align 8
  %11 = alloca i8, align 1
  %12 = alloca i8, align 1
  %13 = alloca [4 x i8], align 1
  %14 = alloca i64, align 8
  store ptr %0, ptr %7, align 8, !tbaa !201
  store ptr %1, ptr %8, align 8, !tbaa !9
  store ptr %2, ptr %9, align 8, !tbaa !95
  store ptr %3, ptr %10, align 8, !tbaa !180
  store i8 %4, ptr %11, align 1, !tbaa !11
  store i8 %5, ptr %12, align 1, !tbaa !11
  %15 = load ptr, ptr %7, align 8
  call void @llvm.lifetime.start.p0(i64 4, ptr %13) #13
  store i8 37, ptr %13, align 1, !tbaa !11
  %16 = getelementptr inbounds i8, ptr %13, i64 1
  %17 = load i8, ptr %11, align 1, !tbaa !11
  store i8 %17, ptr %16, align 1, !tbaa !11
  %18 = getelementptr inbounds i8, ptr %13, i64 2
  %19 = load i8, ptr %12, align 1, !tbaa !11
  store i8 %19, ptr %18, align 1, !tbaa !11
  %20 = getelementptr inbounds i8, ptr %13, i64 3
  store i8 0, ptr %20, align 1, !tbaa !11
  %21 = load i8, ptr %12, align 1, !tbaa !11
  %22 = sext i8 %21 to i32
  %23 = icmp ne i32 %22, 0
  br i1 %23, label %24, label %27

24:                                               ; preds = %6
  %25 = getelementptr inbounds [4 x i8], ptr %13, i64 0, i64 1
  %26 = getelementptr inbounds [4 x i8], ptr %13, i64 0, i64 2
  call void @_ZNSt3__14swapB8ne210000IcEENS_9enable_ifIXaasr21is_move_constructibleIT_EE5valuesr18is_move_assignableIS2_EE5valueEvE4typeERS2_S5_(ptr noundef nonnull align 1 dereferenceable(1) %25, ptr noundef nonnull align 1 dereferenceable(1) %26) #13
  br label %27

27:                                               ; preds = %24, %6
  call void @llvm.lifetime.start.p0(i64 8, ptr %14) #13
  %28 = load ptr, ptr %8, align 8, !tbaa !9
  %29 = load ptr, ptr %8, align 8, !tbaa !9
  %30 = load ptr, ptr %9, align 8, !tbaa !95
  %31 = load ptr, ptr %30, align 8, !tbaa !9
  %32 = call noundef i64 @_ZNSt3__112_GLOBAL__N_17countofIcEEmPKT_S4_(ptr noundef %29, ptr noundef %31)
  %33 = getelementptr inbounds [4 x i8], ptr %13, i64 0, i64 0
  %34 = load ptr, ptr %10, align 8, !tbaa !180
  %35 = getelementptr inbounds nuw %"class.std::__1::__time_put", ptr %15, i32 0, i32 0
  %36 = load ptr, ptr %35, align 8, !tbaa !203
  %37 = call noundef i64 @_ZNSt3__18__locale10__strftimeB8ne210000EPcmPKcPK2tmP15__locale_struct(ptr noundef %28, i64 noundef %32, ptr noundef %33, ptr noundef %34, ptr noundef %36)
  store i64 %37, ptr %14, align 8, !tbaa !16
  %38 = load ptr, ptr %8, align 8, !tbaa !9
  %39 = load i64, ptr %14, align 8, !tbaa !16
  %40 = getelementptr inbounds nuw i8, ptr %38, i64 %39
  %41 = load ptr, ptr %9, align 8, !tbaa !95
  store ptr %40, ptr %41, align 8, !tbaa !9
  call void @llvm.lifetime.end.p0(i64 8, ptr %14) #13
  call void @llvm.lifetime.end.p0(i64 4, ptr %13) #13
  ret void
}