; Function Attrs: mustprogress nounwind uwtable
define dso_local void @_ZNKSt3__110__time_put8__do_putEPcRS1_PK2tmcc(ptr noundef nonnull readonly align 8 captures(none) dereferenceable(8) %0, ptr noundef %1, ptr noundef nonnull align 8 captures(none) dereferenceable(8) %2, ptr noundef %3, i8 noundef signext %4, i8 noundef signext %5) local_unnamed_addr #0 align 2 {
  %7 = alloca [4 x i8], align 1
  call void @llvm.lifetime.start.p0(i64 4, ptr nonnull %7) #45
  store i8 37, ptr %7, align 1, !tbaa !4
  %8 = getelementptr inbounds nuw i8, ptr %7, i64 1
  store i8 %4, ptr %8, align 1, !tbaa !4
  %9 = getelementptr inbounds nuw i8, ptr %7, i64 2
  store i8 %5, ptr %9, align 1, !tbaa !4
  %10 = getelementptr inbounds nuw i8, ptr %7, i64 3
  store i8 0, ptr %10, align 1, !tbaa !4
  %.not = icmp eq i8 %5, 0
  br i1 %.not, label %12, label %11

11:                                               ; preds = %6
  store i8 %5, ptr %8, align 1, !tbaa !4
  store i8 %4, ptr %9, align 1, !tbaa !4
  br label %12

12:                                               ; preds = %11, %6
  %13 = load ptr, ptr %2, align 8, !tbaa !72
  %14 = ptrtoint ptr %13 to i64
  %15 = ptrtoint ptr %1 to i64
  %16 = sub i64 %14, %15
  %17 = load ptr, ptr %0, align 8, !tbaa !174
  %18 = call noundef i64 @strftime_l(ptr noundef %1, i64 noundef %16, ptr noundef nonnull %7, ptr noundef %3, ptr noundef %17) #45
  %19 = getelementptr inbounds nuw i8, ptr %1, i64 %18
  store ptr %19, ptr %2, align 8, !tbaa !72
  call void @llvm.lifetime.end.p0(i64 4, ptr nonnull %7) #45
  ret void
}